; Function Attrs: mustprogress nounwind uwtable
define dso_local void @_ZN4llvm18DecodeINSERTPSMaskEjRNS_15SmallVectorImplIiEE(i32 noundef %0, ptr noundef nonnull align 8 dereferenceable(16) %1) local_unnamed_addr #0 {
  %3 = tail call noundef i64 @_ZNK4llvm15SmallVectorBaseIjE4sizeEv(ptr noundef nonnull align 8 dereferenceable(16) %1) #4
  %4 = add i64 %3, 1
  %5 = tail call noundef i64 @_ZNK4llvm15SmallVectorBaseIjE8capacityEv(ptr noundef nonnull align 8 dereferenceable(16) %1) #4
  %.not.i.i.i = icmp ugt i64 %4, %5
  br i1 %.not.i.i.i, label %6, label %_ZN4llvm23SmallVectorTemplateBaseIiLb1EE9push_backEi.exit

6:                                                ; preds = %2
  %7 = getelementptr inbounds nuw i8, ptr %1, i64 16
  tail call void @_ZN4llvm15SmallVectorBaseIjE8grow_podEPvmm(ptr noundef nonnull align 8 dereferenceable(16) %1, ptr noundef nonnull %7, i64 noundef %4, i64 noundef 4) #4
  br label %_ZN4llvm23SmallVectorTemplateBaseIiLb1EE9push_backEi.exit

_ZN4llvm23SmallVectorTemplateBaseIiLb1EE9push_backEi.exit: ; preds = %2, %6
  %8 = load ptr, ptr %1, align 8
  %9 = tail call noundef i64 @_ZNK4llvm15SmallVectorBaseIjE4sizeEv(ptr noundef nonnull align 8 dereferenceable(16) %1) #4
  %10 = getelementptr inbounds i32, ptr %8, i64 %9
  store i32 0, ptr %10, align 1
  %11 = tail call noundef i64 @_ZNK4llvm15SmallVectorBaseIjE4sizeEv(ptr noundef nonnull align 8 dereferenceable(16) %1) #4
  %12 = add i64 %11, 1
  tail call void @_ZN4llvm15SmallVectorBaseIjE8set_sizeEm(ptr noundef nonnull align 8 dereferenceable(16) %1, i64 noundef %12) #4
  %13 = tail call noundef i64 @_ZNK4llvm15SmallVectorBaseIjE4sizeEv(ptr noundef nonnull align 8 dereferenceable(16) %1) #4
  %14 = add i64 %13, 1
  %15 = tail call noundef i64 @_ZNK4llvm15SmallVectorBaseIjE8capacityEv(ptr noundef nonnull align 8 dereferenceable(16) %1) #4
  %.not.i.i.i21 = icmp ugt i64 %14, %15
  br i1 %.not.i.i.i21, label %16, label %_ZN4llvm23SmallVectorTemplateBaseIiLb1EE9push_backEi.exit22

16:                                               ; preds = %_ZN4llvm23SmallVectorTemplateBaseIiLb1EE9push_backEi.exit
  %17 = getelementptr inbounds nuw i8, ptr %1, i64 16
  tail call void @_ZN4llvm15SmallVectorBaseIjE8grow_podEPvmm(ptr noundef nonnull align 8 dereferenceable(16) %1, ptr noundef nonnull %17, i64 noundef %14, i64 noundef 4) #4
  br label %_ZN4llvm23SmallVectorTemplateBaseIiLb1EE9push_backEi.exit22

_ZN4llvm23SmallVectorTemplateBaseIiLb1EE9push_backEi.exit22: ; preds = %_ZN4llvm23SmallVectorTemplateBaseIiLb1EE9push_backEi.exit, %16
  %18 = load ptr, ptr %1, align 8
  %19 = tail call noundef i64 @_ZNK4llvm15SmallVectorBaseIjE4sizeEv(ptr noundef nonnull align 8 dereferenceable(16) %1) #4
  %20 = getelementptr inbounds i32, ptr %18, i64 %19
  store i32 1, ptr %20, align 1
  %21 = tail call noundef i64 @_ZNK4llvm15SmallVectorBaseIjE4sizeEv(ptr noundef nonnull align 8 dereferenceable(16) %1) #4
  %22 = add i64 %21, 1
  tail call void @_ZN4llvm15SmallVectorBaseIjE8set_sizeEm(ptr noundef nonnull align 8 dereferenceable(16) %1, i64 noundef %22) #4
  %23 = tail call noundef i64 @_ZNK4llvm15SmallVectorBaseIjE4sizeEv(ptr noundef nonnull align 8 dereferenceable(16) %1) #4
  %24 = add i64 %23, 1
  %25 = tail call noundef i64 @_ZNK4llvm15SmallVectorBaseIjE8capacityEv(ptr noundef nonnull align 8 dereferenceable(16) %1) #4
  %.not.i.i.i23 = icmp ugt i64 %24, %25
  br i1 %.not.i.i.i23, label %26, label %_ZN4llvm23SmallVectorTemplateBaseIiLb1EE9push_backEi.exit24

26:                                               ; preds = %_ZN4llvm23SmallVectorTemplateBaseIiLb1EE9push_backEi.exit22
  %27 = getelementptr inbounds nuw i8, ptr %1, i64 16
  tail call void @_ZN4llvm15SmallVectorBaseIjE8grow_podEPvmm(ptr noundef nonnull align 8 dereferenceable(16) %1, ptr noundef nonnull %27, i64 noundef %24, i64 noundef 4) #4
  br label %_ZN4llvm23SmallVectorTemplateBaseIiLb1EE9push_backEi.exit24

_ZN4llvm23SmallVectorTemplateBaseIiLb1EE9push_backEi.exit24: ; preds = %_ZN4llvm23SmallVectorTemplateBaseIiLb1EE9push_backEi.exit22, %26
  %28 = load ptr, ptr %1, align 8
  %29 = tail call noundef i64 @_ZNK4llvm15SmallVectorBaseIjE4sizeEv(ptr noundef nonnull align 8 dereferenceable(16) %1) #4
  %30 = getelementptr inbounds i32, ptr %28, i64 %29
  store i32 2, ptr %30, align 1
  %31 = tail call noundef i64 @_ZNK4llvm15SmallVectorBaseIjE4sizeEv(ptr noundef nonnull align 8 dereferenceable(16) %1) #4
  %32 = add i64 %31, 1
  tail call void @_ZN4llvm15SmallVectorBaseIjE8set_sizeEm(ptr noundef nonnull align 8 dereferenceable(16) %1, i64 noundef %32) #4
  %33 = tail call noundef i64 @_ZNK4llvm15SmallVectorBaseIjE4sizeEv(ptr noundef nonnull align 8 dereferenceable(16) %1) #4
  %34 = add i64 %33, 1
  %35 = tail call noundef i64 @_ZNK4llvm15SmallVectorBaseIjE8capacityEv(ptr noundef nonnull align 8 dereferenceable(16) %1) #4
  %.not.i.i.i25 = icmp ugt i64 %34, %35
  br i1 %.not.i.i.i25, label %36, label %_ZN4llvm23SmallVectorTemplateBaseIiLb1EE9push_backEi.exit26

36:                                               ; preds = %_ZN4llvm23SmallVectorTemplateBaseIiLb1EE9push_backEi.exit24
  %37 = getelementptr inbounds nuw i8, ptr %1, i64 16
  tail call void @_ZN4llvm15SmallVectorBaseIjE8grow_podEPvmm(ptr noundef nonnull align 8 dereferenceable(16) %1, ptr noundef nonnull %37, i64 noundef %34, i64 noundef 4) #4
  br label %_ZN4llvm23SmallVectorTemplateBaseIiLb1EE9push_backEi.exit26

_ZN4llvm23SmallVectorTemplateBaseIiLb1EE9push_backEi.exit26: ; preds = %_ZN4llvm23SmallVectorTemplateBaseIiLb1EE9push_backEi.exit24, %36
  %38 = load ptr, ptr %1, align 8
  %39 = tail call noundef i64 @_ZNK4llvm15SmallVectorBaseIjE4sizeEv(ptr noundef nonnull align 8 dereferenceable(16) %1) #4
  %40 = getelementptr inbounds i32, ptr %38, i64 %39
  store i32 3, ptr %40, align 1
  %41 = tail call noundef i64 @_ZNK4llvm15SmallVectorBaseIjE4sizeEv(ptr noundef nonnull align 8 dereferenceable(16) %1) #4
  %42 = add i64 %41, 1
  tail call void @_ZN4llvm15SmallVectorBaseIjE8set_sizeEm(ptr noundef nonnull align 8 dereferenceable(16) %1, i64 noundef %42) #4
  %43 = lshr i32 %0, 4
  %44 = and i32 %43, 3
  %45 = lshr i32 %0, 6
  %46 = and i32 %45, 3
  %47 = or disjoint i32 %46, 4
  %48 = zext nneg i32 %44 to i64
  %49 = load ptr, ptr %1, align 8
  %50 = getelementptr inbounds nuw i32, ptr %49, i64 %48
  store i32 %47, ptr %50, align 4
  %51 = and i32 %0, 1
  %.not = icmp eq i32 %51, 0
  br i1 %.not, label %54, label %52

52:                                               ; preds = %_ZN4llvm23SmallVectorTemplateBaseIiLb1EE9push_backEi.exit26
  %53 = load ptr, ptr %1, align 8
  store i32 -2, ptr %53, align 4
  br label %54

54:                                               ; preds = %52, %_ZN4llvm23SmallVectorTemplateBaseIiLb1EE9push_backEi.exit26
  %55 = and i32 %0, 2
  %.not18 = icmp eq i32 %55, 0
  br i1 %.not18, label %59, label %56

56:                                               ; preds = %54
  %57 = load ptr, ptr %1, align 8
  %58 = getelementptr inbounds nuw i8, ptr %57, i64 4
  store i32 -2, ptr %58, align 4
  br label %59

59:                                               ; preds = %56, %54
  %60 = and i32 %0, 4
  %.not19 = icmp eq i32 %60, 0
  br i1 %.not19, label %64, label %61

61:                                               ; preds = %59
  %62 = load ptr, ptr %1, align 8
  %63 = getelementptr inbounds nuw i8, ptr %62, i64 8
  store i32 -2, ptr %63, align 4
  br label %64

64:                                               ; preds = %61, %59
  %65 = and i32 %0, 8
  %.not20 = icmp eq i32 %65, 0
  br i1 %.not20, label %69, label %66

66:                                               ; preds = %64
  %67 = load ptr, ptr %1, align 8
  %68 = getelementptr inbounds nuw i8, ptr %67, i64 12
  store i32 -2, ptr %68, align 4
  br label %69

69:                                               ; preds = %66, %64
  ret void
}